target datalayout = "e-m:e-p270:32:32-p271:32:32-p272:64:64-i64:64-i128:128-f80:128-n8:16:32:64-S128"
target triple = "x86_64-pc-linux-gnu"

%struct.AVFilterContext = type { ptr, ptr, ptr, ptr, ptr, i32, ptr, ptr, i32, ptr, ptr, i32, i32, ptr, ptr, ptr, ptr, i32, ptr, i32, i32 }
%struct.SilenceRemoveContext = type { ptr, i32, i32, i64, i64, double, i64, i64, i32, i32, i64, i64, double, i64, i64, i64, i32, i32, i32, i32, i32, i32, i32, ptr, ptr, ptr, ptr, ptr, ptr, i64, i32, i32, i32, i32, i32, ptr, ptr, ptr, i32, i32, ptr, i32, i32, i32, i32, i64, i32, ptr, ptr }
%struct.AVRational = type { i32, i32 }
%struct.AVChannelLayout = type { i32, i32, %union.anon.1, ptr }
%union.anon.1 = type { i64 }
%struct.AVFilterLink = type { ptr, ptr, ptr, ptr, i32, i32, i32, i32, %struct.AVRational, i32, i32, i32, %struct.AVChannelLayout, %struct.AVRational, ptr, i32, %struct.AVFilterFormatsConfig, %struct.AVFilterFormatsConfig }
%struct.AVFilterFormatsConfig = type { ptr, ptr, ptr, ptr, ptr }

; Function Attrs: nounwind uwtable
define internal i32 @config_output(ptr noundef %0) #2 {
  %2 = alloca i32, align 4
  %3 = alloca ptr, align 8
  %4 = alloca ptr, align 8
  %5 = alloca ptr, align 8
  %6 = alloca i32, align 4
  store ptr %0, ptr %3, align 8, !tbaa !32
  call void @llvm.lifetime.start.p0(i64 8, ptr %4) #7
  %7 = load ptr, ptr %3, align 8, !tbaa !32
  %8 = getelementptr inbounds nuw %struct.AVFilterLink, ptr %7, i32 0, i32 0
  %9 = load ptr, ptr %8, align 8, !tbaa !68
  store ptr %9, ptr %4, align 8, !tbaa !4
  call void @llvm.lifetime.start.p0(i64 8, ptr %5) #7
  %10 = load ptr, ptr %4, align 8, !tbaa !4
  %11 = getelementptr inbounds nuw %struct.AVFilterContext, ptr %10, i32 0, i32 9
  %12 = load ptr, ptr %11, align 8, !tbaa !9
  store ptr %12, ptr %5, align 8, !tbaa !22
  %13 = load ptr, ptr %5, align 8, !tbaa !22
  %14 = getelementptr inbounds nuw %struct.SilenceRemoveContext, ptr %13, i32 0, i32 46
  %15 = load i32, ptr %14, align 8, !tbaa !69
  switch i32 %15, label %29 [
    i32 0, label %16
    i32 1, label %16
    i32 5, label %19
    i32 3, label %22
    i32 2, label %22
    i32 4, label %22
  ]

16:                                               ; preds = %1, %1
  %17 = load ptr, ptr %5, align 8, !tbaa !22
  %18 = getelementptr inbounds nuw %struct.SilenceRemoveContext, ptr %17, i32 0, i32 30
  store i32 1, ptr %18, align 8, !tbaa !70
  br label %29

19:                                               ; preds = %1
  %20 = load ptr, ptr %5, align 8, !tbaa !22
  %21 = getelementptr inbounds nuw %struct.SilenceRemoveContext, ptr %20, i32 0, i32 30
  store i32 2, ptr %21, align 8, !tbaa !70
  br label %29

22:                                               ; preds = %1, %1, %1
  %23 = load ptr, ptr %5, align 8, !tbaa !22
  %24 = getelementptr inbounds nuw %struct.SilenceRemoveContext, ptr %23, i32 0, i32 29
  %25 = load i64, ptr %24, align 8, !tbaa !58
  %26 = trunc i64 %25 to i32
  %27 = load ptr, ptr %5, align 8, !tbaa !22
  %28 = getelementptr inbounds nuw %struct.SilenceRemoveContext, ptr %27, i32 0, i32 30
  store i32 %26, ptr %28, align 8, !tbaa !70
  br label %29

29:                                               ; preds = %1, %22, %19, %16
  %30 = load ptr, ptr %3, align 8, !tbaa !32
  %31 = load ptr, ptr %5, align 8, !tbaa !22
  %32 = getelementptr inbounds nuw %struct.SilenceRemoveContext, ptr %31, i32 0, i32 29
  %33 = load i64, ptr %32, align 8, !tbaa !58
  %34 = trunc i64 %33 to i32
  %35 = call ptr @ff_get_audio_buffer(ptr noundef %30, i32 noundef %34)
  %36 = load ptr, ptr %5, align 8, !tbaa !22
  %37 = getelementptr inbounds nuw %struct.SilenceRemoveContext, ptr %36, i32 0, i32 23
  store ptr %35, ptr %37, align 8, !tbaa !71
  %38 = load ptr, ptr %3, align 8, !tbaa !32
  %39 = load ptr, ptr %5, align 8, !tbaa !22
  %40 = getelementptr inbounds nuw %struct.SilenceRemoveContext, ptr %39, i32 0, i32 29
  %41 = load i64, ptr %40, align 8, !tbaa !58
  %42 = trunc i64 %41 to i32
  %43 = call ptr @ff_get_audio_buffer(ptr noundef %38, i32 noundef %42)
  %44 = load ptr, ptr %5, align 8, !tbaa !22
  %45 = getelementptr inbounds nuw %struct.SilenceRemoveContext, ptr %44, i32 0, i32 24
  store ptr %43, ptr %45, align 8, !tbaa !72
  %46 = load ptr, ptr %3, align 8, !tbaa !32
  %47 = getelementptr inbounds nuw %struct.AVFilterLink, ptr %46, i32 0, i32 12
  %48 = getelementptr inbounds nuw %struct.AVChannelLayout, ptr %47, i32 0, i32 1
  %49 = load i32, ptr %48, align 4, !tbaa !73
  %50 = sext i32 %49 to i64
  %51 = load ptr, ptr %5, align 8, !tbaa !22
  %52 = getelementptr inbounds nuw %struct.SilenceRemoveContext, ptr %51, i32 0, i32 30
  %53 = load i32, ptr %52, align 8, !tbaa !70
  %54 = sext i32 %53 to i64
  %55 = mul i64 %54, 8
  %56 = call noalias ptr @av_calloc(i64 noundef %50, i64 noundef %55)
  %57 = load ptr, ptr %5, align 8, !tbaa !22
  %58 = getelementptr inbounds nuw %struct.SilenceRemoveContext, ptr %57, i32 0, i32 35
  store ptr %56, ptr %58, align 8, !tbaa !74
  %59 = load ptr, ptr %3, align 8, !tbaa !32
  %60 = getelementptr inbounds nuw %struct.AVFilterLink, ptr %59, i32 0, i32 12
  %61 = getelementptr inbounds nuw %struct.AVChannelLayout, ptr %60, i32 0, i32 1
  %62 = load i32, ptr %61, align 4, !tbaa !73
  %63 = sext i32 %62 to i64
  %64 = load ptr, ptr %5, align 8, !tbaa !22
  %65 = getelementptr inbounds nuw %struct.SilenceRemoveContext, ptr %64, i32 0, i32 30
  %66 = load i32, ptr %65, align 8, !tbaa !70
  %67 = sext i32 %66 to i64
  %68 = mul i64 %67, 8
  %69 = call noalias ptr @av_calloc(i64 noundef %63, i64 noundef %68)
  %70 = load ptr, ptr %5, align 8, !tbaa !22
  %71 = getelementptr inbounds nuw %struct.SilenceRemoveContext, ptr %70, i32 0, i32 36
  store ptr %69, ptr %71, align 8, !tbaa !75
  %72 = load ptr, ptr %5, align 8, !tbaa !22
  %73 = getelementptr inbounds nuw %struct.SilenceRemoveContext, ptr %72, i32 0, i32 23
  %74 = load ptr, ptr %73, align 8, !tbaa !71
  %75 = icmp ne ptr %74, null
  br i1 %75, label %76, label %91

76:                                               ; preds = %29
  %77 = load ptr, ptr %5, align 8, !tbaa !22
  %78 = getelementptr inbounds nuw %struct.SilenceRemoveContext, ptr %77, i32 0, i32 24
  %79 = load ptr, ptr %78, align 8, !tbaa !72
  %80 = icmp ne ptr %79, null
  br i1 %80, label %81, label %91

81:                                               ; preds = %76
  %82 = load ptr, ptr %5, align 8, !tbaa !22
  %83 = getelementptr inbounds nuw %struct.SilenceRemoveContext, ptr %82, i32 0, i32 35
  %84 = load ptr, ptr %83, align 8, !tbaa !74
  %85 = icmp ne ptr %84, null
  br i1 %85, label %86, label %91

86:                                               ; preds = %81
  %87 = load ptr, ptr %5, align 8, !tbaa !22
  %88 = getelementptr inbounds nuw %struct.SilenceRemoveContext, ptr %87, i32 0, i32 36
  %89 = load ptr, ptr %88, align 8, !tbaa !75
  %90 = icmp ne ptr %89, null
  br i1 %90, label %92, label %91

91:                                               ; preds = %86, %81, %76, %29
  store i32 -12, ptr %2, align 4
  store i32 1, ptr %6, align 4
  br label %210

92:                                               ; preds = %86
  %93 = load ptr, ptr %3, align 8, !tbaa !32
  %94 = load ptr, ptr %5, align 8, !tbaa !22
  %95 = getelementptr inbounds nuw %struct.SilenceRemoveContext, ptr %94, i32 0, i32 6
  %96 = load i64, ptr %95, align 8, !tbaa !62
  %97 = add nsw i64 %96, 1
  %98 = trunc i64 %97 to i32
  %99 = call ptr @ff_get_audio_buffer(ptr noundef %93, i32 noundef %98)
  %100 = load ptr, ptr %5, align 8, !tbaa !22
  %101 = getelementptr inbounds nuw %struct.SilenceRemoveContext, ptr %100, i32 0, i32 37
  store ptr %99, ptr %101, align 8, !tbaa !76
  %102 = load ptr, ptr %3, align 8, !tbaa !32
  %103 = load ptr, ptr %5, align 8, !tbaa !22
  %104 = getelementptr inbounds nuw %struct.SilenceRemoveContext, ptr %103, i32 0, i32 13
  %105 = load i64, ptr %104, align 8, !tbaa !66
  %106 = add nsw i64 %105, 1
  %107 = trunc i64 %106 to i32
  %108 = call ptr @ff_get_audio_buffer(ptr noundef %102, i32 noundef %107)
  %109 = load ptr, ptr %5, align 8, !tbaa !22
  %110 = getelementptr inbounds nuw %struct.SilenceRemoveContext, ptr %109, i32 0, i32 40
  store ptr %108, ptr %110, align 8, !tbaa !77
  %111 = load ptr, ptr %5, align 8, !tbaa !22
  %112 = getelementptr inbounds nuw %struct.SilenceRemoveContext, ptr %111, i32 0, i32 37
  %113 = load ptr, ptr %112, align 8, !tbaa !76
  %114 = icmp ne ptr %113, null
  br i1 %114, label %115, label %120

115:                                              ; preds = %92
  %116 = load ptr, ptr %5, align 8, !tbaa !22
  %117 = getelementptr inbounds nuw %struct.SilenceRemoveContext, ptr %116, i32 0, i32 40
  %118 = load ptr, ptr %117, align 8, !tbaa !77
  %119 = icmp ne ptr %118, null
  br i1 %119, label %121, label %120

120:                                              ; preds = %115, %92
  store i32 -12, ptr %2, align 4
  store i32 1, ptr %6, align 4
  br label %210

121:                                              ; preds = %115
  %122 = load ptr, ptr %3, align 8, !tbaa !32
  %123 = getelementptr inbounds nuw %struct.AVFilterLink, ptr %122, i32 0, i32 12
  %124 = getelementptr inbounds nuw %struct.AVChannelLayout, ptr %123, i32 0, i32 1
  %125 = load i32, ptr %124, align 4, !tbaa !73
  %126 = sext i32 %125 to i64
  %127 = call noalias ptr @av_calloc(i64 noundef %126, i64 noundef 4)
  %128 = load ptr, ptr %5, align 8, !tbaa !22
  %129 = getelementptr inbounds nuw %struct.SilenceRemoveContext, ptr %128, i32 0, i32 25
  store ptr %127, ptr %129, align 8, !tbaa !78
  %130 = load ptr, ptr %3, align 8, !tbaa !32
  %131 = getelementptr inbounds nuw %struct.AVFilterLink, ptr %130, i32 0, i32 12
  %132 = getelementptr inbounds nuw %struct.AVChannelLayout, ptr %131, i32 0, i32 1
  %133 = load i32, ptr %132, align 4, !tbaa !73
  %134 = sext i32 %133 to i64
  %135 = call noalias ptr @av_calloc(i64 noundef %134, i64 noundef 4)
  %136 = load ptr, ptr %5, align 8, !tbaa !22
  %137 = getelementptr inbounds nuw %struct.SilenceRemoveContext, ptr %136, i32 0, i32 26
  store ptr %135, ptr %137, align 8, !tbaa !79
  %138 = load ptr, ptr %3, align 8, !tbaa !32
  %139 = getelementptr inbounds nuw %struct.AVFilterLink, ptr %138, i32 0, i32 12
  %140 = getelementptr inbounds nuw %struct.AVChannelLayout, ptr %139, i32 0, i32 1
  %141 = load i32, ptr %140, align 4, !tbaa !73
  %142 = sext i32 %141 to i64
  %143 = call noalias ptr @av_calloc(i64 noundef %142, i64 noundef 4)
  %144 = load ptr, ptr %5, align 8, !tbaa !22
  %145 = getelementptr inbounds nuw %struct.SilenceRemoveContext, ptr %144, i32 0, i32 27
  store ptr %143, ptr %145, align 8, !tbaa !80
  %146 = load ptr, ptr %3, align 8, !tbaa !32
  %147 = getelementptr inbounds nuw %struct.AVFilterLink, ptr %146, i32 0, i32 12
  %148 = getelementptr inbounds nuw %struct.AVChannelLayout, ptr %147, i32 0, i32 1
  %149 = load i32, ptr %148, align 4, !tbaa !73
  %150 = sext i32 %149 to i64
  %151 = call noalias ptr @av_calloc(i64 noundef %150, i64 noundef 4)
  %152 = load ptr, ptr %5, align 8, !tbaa !22
  %153 = getelementptr inbounds nuw %struct.SilenceRemoveContext, ptr %152, i32 0, i32 28
  store ptr %151, ptr %153, align 8, !tbaa !81
  %154 = load ptr, ptr %5, align 8, !tbaa !22
  %155 = getelementptr inbounds nuw %struct.SilenceRemoveContext, ptr %154, i32 0, i32 25
  %156 = load ptr, ptr %155, align 8, !tbaa !78
  %157 = icmp ne ptr %156, null
  br i1 %157, label %158, label %173

158:                                              ; preds = %121
  %159 = load ptr, ptr %5, align 8, !tbaa !22
  %160 = getelementptr inbounds nuw %struct.SilenceRemoveContext, ptr %159, i32 0, i32 26
  %161 = load ptr, ptr %160, align 8, !tbaa !79
  %162 = icmp ne ptr %161, null
  br i1 %162, label %163, label %173

163:                                              ; preds = %158
  %164 = load ptr, ptr %5, align 8, !tbaa !22
  %165 = getelementptr inbounds nuw %struct.SilenceRemoveContext, ptr %164, i32 0, i32 27
  %166 = load ptr, ptr %165, align 8, !tbaa !80
  %167 = icmp ne ptr %166, null
  br i1 %167, label %168, label %173

168:                                              ; preds = %163
  %169 = load ptr, ptr %5, align 8, !tbaa !22
  %170 = getelementptr inbounds nuw %struct.SilenceRemoveContext, ptr %169, i32 0, i32 28
  %171 = load ptr, ptr %170, align 8, !tbaa !81
  %172 = icmp ne ptr %171, null
  br i1 %172, label %174, label %173

173:                                              ; preds = %168, %163, %158, %121
  store i32 -12, ptr %2, align 4
  store i32 1, ptr %6, align 4
  br label %210

174:                                              ; preds = %168
  %175 = load ptr, ptr %5, align 8, !tbaa !22
  call void @clear_windows(ptr noundef %175)
  %176 = load ptr, ptr %5, align 8, !tbaa !22
  %177 = getelementptr inbounds nuw %struct.SilenceRemoveContext, ptr %176, i32 0, i32 46
  %178 = load i32, ptr %177, align 8, !tbaa !69
  switch i32 %178, label %209 [
    i32 0, label %179
    i32 5, label %184
    i32 4, label %189
    i32 3, label %194
    i32 2, label %199
    i32 1, label %204
  ]

179:                                              ; preds = %174
  %180 = load ptr, ptr %5, align 8, !tbaa !22
  %181 = getelementptr inbounds nuw %struct.SilenceRemoveContext, ptr %180, i32 0, i32 47
  store ptr @compute_avg_flt, ptr %181, align 8, !tbaa !82
  %182 = load ptr, ptr %5, align 8, !tbaa !22
  %183 = getelementptr inbounds nuw %struct.SilenceRemoveContext, ptr %182, i32 0, i32 48
  store ptr @compute_avg_dbl, ptr %183, align 8, !tbaa !83
  br label %209

184:                                              ; preds = %174
  %185 = load ptr, ptr %5, align 8, !tbaa !22
  %186 = getelementptr inbounds nuw %struct.SilenceRemoveContext, ptr %185, i32 0, i32 47
  store ptr @compute_dev_flt, ptr %186, align 8, !tbaa !82
  %187 = load ptr, ptr %5, align 8, !tbaa !22
  %188 = getelementptr inbounds nuw %struct.SilenceRemoveContext, ptr %187, i32 0, i32 48
  store ptr @compute_dev_dbl, ptr %188, align 8, !tbaa !83
  br label %209

189:                                              ; preds = %174
  %190 = load ptr, ptr %5, align 8, !tbaa !22
  %191 = getelementptr inbounds nuw %struct.SilenceRemoveContext, ptr %190, i32 0, i32 47
  store ptr @compute_ptp_flt, ptr %191, align 8, !tbaa !82
  %192 = load ptr, ptr %5, align 8, !tbaa !22
  %193 = getelementptr inbounds nuw %struct.SilenceRemoveContext, ptr %192, i32 0, i32 48
  store ptr @compute_ptp_dbl, ptr %193, align 8, !tbaa !83
  br label %209

194:                                              ; preds = %174
  %195 = load ptr, ptr %5, align 8, !tbaa !22
  %196 = getelementptr inbounds nuw %struct.SilenceRemoveContext, ptr %195, i32 0, i32 47
  store ptr @compute_median_flt, ptr %196, align 8, !tbaa !82
  %197 = load ptr, ptr %5, align 8, !tbaa !22
  %198 = getelementptr inbounds nuw %struct.SilenceRemoveContext, ptr %197, i32 0, i32 48
  store ptr @compute_median_dbl, ptr %198, align 8, !tbaa !83
  br label %209

199:                                              ; preds = %174
  %200 = load ptr, ptr %5, align 8, !tbaa !22
  %201 = getelementptr inbounds nuw %struct.SilenceRemoveContext, ptr %200, i32 0, i32 47
  store ptr @compute_peak_flt, ptr %201, align 8, !tbaa !82
  %202 = load ptr, ptr %5, align 8, !tbaa !22
  %203 = getelementptr inbounds nuw %struct.SilenceRemoveContext, ptr %202, i32 0, i32 48
  store ptr @compute_peak_dbl, ptr %203, align 8, !tbaa !83
  br label %209

204:                                              ; preds = %174
  %205 = load ptr, ptr %5, align 8, !tbaa !22
  %206 = getelementptr inbounds nuw %struct.SilenceRemoveContext, ptr %205, i32 0, i32 47
  store ptr @compute_rms_flt, ptr %206, align 8, !tbaa !82
  %207 = load ptr, ptr %5, align 8, !tbaa !22
  %208 = getelementptr inbounds nuw %struct.SilenceRemoveContext, ptr %207, i32 0, i32 48
  store ptr @compute_rms_dbl, ptr %208, align 8, !tbaa !83
  br label %209

209:                                              ; preds = %174, %204, %199, %194, %189, %184, %179
  store i32 0, ptr %2, align 4
  store i32 1, ptr %6, align 4
  br label %210

210:                                              ; preds = %209, %173, %120, %91
  call void @llvm.lifetime.end.p0(i64 8, ptr %5) #7
  call void @llvm.lifetime.end.p0(i64 8, ptr %4) #7
  %211 = load i32, ptr %2, align 4
  ret i32 %211
}