; Function Attrs: nounwind uwtable
define internal range(i32 -12, 1) i32 @config_output(ptr noundef %0) #3 {
  %2 = load ptr, ptr %0, align 8, !tbaa !51
  %3 = getelementptr inbounds nuw i8, ptr %2, i64 72
  %4 = load ptr, ptr %3, align 8, !tbaa !4
  %5 = getelementptr inbounds nuw i8, ptr %4, i64 288
  %6 = load i32, ptr %5, align 8, !tbaa !78
  switch i32 %6, label %13 [
    i32 0, label %.sink.split
    i32 1, label %.sink.split
    i32 5, label %7
    i32 3, label %8
    i32 2, label %8
    i32 4, label %8
  ]

7:                                                ; preds = %1
  br label %.sink.split

8:                                                ; preds = %1, %1, %1
  %9 = getelementptr inbounds nuw i8, ptr %4, i64 192
  %10 = load i64, ptr %9, align 8, !tbaa !70
  %11 = trunc i64 %10 to i32
  br label %.sink.split

.sink.split:                                      ; preds = %1, %1, %7, %8
  %.sink = phi i32 [ %11, %8 ], [ 2, %7 ], [ 1, %1 ], [ 1, %1 ]
  %12 = getelementptr inbounds nuw i8, ptr %4, i64 200
  store i32 %.sink, ptr %12, align 8, !tbaa !79
  br label %13

13:                                               ; preds = %.sink.split, %1
  %14 = getelementptr inbounds nuw i8, ptr %4, i64 192
  %15 = load i64, ptr %14, align 8, !tbaa !70
  %16 = trunc i64 %15 to i32
  %17 = tail call ptr @ff_get_audio_buffer(ptr noundef nonnull %0, i32 noundef %16) #12
  %18 = getelementptr inbounds nuw i8, ptr %4, i64 144
  store ptr %17, ptr %18, align 8, !tbaa !80
  %19 = load i64, ptr %14, align 8, !tbaa !70
  %20 = trunc i64 %19 to i32
  %21 = tail call ptr @ff_get_audio_buffer(ptr noundef nonnull %0, i32 noundef %20) #12
  %22 = getelementptr inbounds nuw i8, ptr %4, i64 152
  store ptr %21, ptr %22, align 8, !tbaa !81
  %23 = getelementptr inbounds nuw i8, ptr %0, i64 76
  %24 = load i32, ptr %23, align 4, !tbaa !45
  %25 = sext i32 %24 to i64
  %26 = getelementptr inbounds nuw i8, ptr %4, i64 200
  %27 = load i32, ptr %26, align 8, !tbaa !79
  %28 = sext i32 %27 to i64
  %29 = shl nsw i64 %28, 3
  %30 = tail call noalias ptr @av_calloc(i64 noundef %25, i64 noundef %29) #12
  %31 = getelementptr inbounds nuw i8, ptr %4, i64 224
  store ptr %30, ptr %31, align 8, !tbaa !82
  %32 = load i32, ptr %23, align 4, !tbaa !45
  %33 = sext i32 %32 to i64
  %34 = load i32, ptr %26, align 8, !tbaa !79
  %35 = sext i32 %34 to i64
  %36 = shl nsw i64 %35, 3
  %37 = tail call noalias ptr @av_calloc(i64 noundef %33, i64 noundef %36) #12
  %38 = getelementptr inbounds nuw i8, ptr %4, i64 232
  store ptr %37, ptr %38, align 8, !tbaa !83
  %39 = load ptr, ptr %18, align 8, !tbaa !80
  %.not = icmp eq ptr %39, null
  br i1 %.not, label %87, label %40

40:                                               ; preds = %13
  %41 = load ptr, ptr %22, align 8, !tbaa !81
  %.not57 = icmp eq ptr %41, null
  br i1 %.not57, label %87, label %42

42:                                               ; preds = %40
  %43 = load ptr, ptr %31, align 8, !tbaa !82
  %.not58 = icmp eq ptr %43, null
  %.not59 = icmp eq ptr %37, null
  %or.cond = select i1 %.not58, i1 true, i1 %.not59
  br i1 %or.cond, label %87, label %44

44:                                               ; preds = %42
  %45 = getelementptr inbounds nuw i8, ptr %4, i64 40
  %46 = load i64, ptr %45, align 8, !tbaa !53
  %47 = trunc i64 %46 to i32
  %48 = add i32 %47, 1
  %49 = tail call ptr @ff_get_audio_buffer(ptr noundef nonnull %0, i32 noundef %48) #12
  %50 = getelementptr inbounds nuw i8, ptr %4, i64 240
  store ptr %49, ptr %50, align 8, !tbaa !84
  %51 = getelementptr inbounds nuw i8, ptr %4, i64 88
  %52 = load i64, ptr %51, align 8, !tbaa !54
  %53 = trunc i64 %52 to i32
  %54 = add i32 %53, 1
  %55 = tail call ptr @ff_get_audio_buffer(ptr noundef nonnull %0, i32 noundef %54) #12
  %56 = getelementptr inbounds nuw i8, ptr %4, i64 256
  store ptr %55, ptr %56, align 8, !tbaa !85
  %57 = load ptr, ptr %50, align 8, !tbaa !84
  %.not60 = icmp eq ptr %57, null
  %.not61 = icmp eq ptr %55, null
  %or.cond66 = select i1 %.not60, i1 true, i1 %.not61
  br i1 %or.cond66, label %87, label %58

58:                                               ; preds = %44
  %59 = load i32, ptr %23, align 4, !tbaa !45
  %60 = sext i32 %59 to i64
  %61 = tail call noalias ptr @av_calloc(i64 noundef %60, i64 noundef 4) #12
  %62 = getelementptr inbounds nuw i8, ptr %4, i64 160
  store ptr %61, ptr %62, align 8, !tbaa !86
  %63 = load i32, ptr %23, align 4, !tbaa !45
  %64 = sext i32 %63 to i64
  %65 = tail call noalias ptr @av_calloc(i64 noundef %64, i64 noundef 4) #12
  %66 = getelementptr inbounds nuw i8, ptr %4, i64 168
  store ptr %65, ptr %66, align 8, !tbaa !87
  %67 = load i32, ptr %23, align 4, !tbaa !45
  %68 = sext i32 %67 to i64
  %69 = tail call noalias ptr @av_calloc(i64 noundef %68, i64 noundef 4) #12
  %70 = getelementptr inbounds nuw i8, ptr %4, i64 176
  store ptr %69, ptr %70, align 8, !tbaa !88
  %71 = load i32, ptr %23, align 4, !tbaa !45
  %72 = sext i32 %71 to i64
  %73 = tail call noalias ptr @av_calloc(i64 noundef %72, i64 noundef 4) #12
  %74 = getelementptr inbounds nuw i8, ptr %4, i64 184
  store ptr %73, ptr %74, align 8, !tbaa !89
  %75 = load ptr, ptr %62, align 8, !tbaa !86
  %.not62 = icmp eq ptr %75, null
  br i1 %.not62, label %87, label %76

76:                                               ; preds = %58
  %77 = load ptr, ptr %66, align 8, !tbaa !87
  %.not63 = icmp eq ptr %77, null
  br i1 %.not63, label %87, label %78

78:                                               ; preds = %76
  %79 = load ptr, ptr %70, align 8, !tbaa !88
  %.not64 = icmp eq ptr %79, null
  %.not65 = icmp eq ptr %73, null
  %or.cond67 = select i1 %.not64, i1 true, i1 %.not65
  br i1 %or.cond67, label %87, label %80

80:                                               ; preds = %78
  tail call fastcc void @clear_windows(ptr noundef nonnull %4)
  %81 = load i32, ptr %5, align 8, !tbaa !78
  %82 = icmp ult i32 %81, 6
  br i1 %82, label %switch.lookup, label %87

switch.lookup:                                    ; preds = %80
  %83 = zext nneg i32 %81 to i64
  %switch.gep = getelementptr inbounds nuw [6 x ptr], ptr @switch.table.config_output, i64 0, i64 %83
  %switch.load = load ptr, ptr %switch.gep, align 8
  %84 = zext nneg i32 %81 to i64
  %switch.gep72 = getelementptr inbounds nuw [6 x ptr], ptr @switch.table.config_output.3, i64 0, i64 %84
  %switch.load73 = load ptr, ptr %switch.gep72, align 8
  %85 = getelementptr inbounds nuw i8, ptr %4, i64 296
  store ptr %switch.load, ptr %85, align 8, !tbaa !90
  %86 = getelementptr inbounds nuw i8, ptr %4, i64 304
  store ptr %switch.load73, ptr %86, align 8, !tbaa !91
  br label %87

87:                                               ; preds = %80, %switch.lookup, %58, %76, %78, %44, %13, %40, %42
  %.0 = phi i32 [ -12, %42 ], [ -12, %40 ], [ -12, %13 ], [ -12, %44 ], [ -12, %78 ], [ -12, %76 ], [ -12, %58 ], [ 0, %80 ], [ 0, %switch.lookup ]
  ret i32 %.0
}